target datalayout = "e-m:e-p270:32:32-p271:32:32-p272:64:64-i64:64-i128:128-f80:128-n8:16:32:64-S128"
target triple = "x86_64-unknown-linux-gnu"

%"class.icu_75::UMutex" = type { [40 x i8], %"struct.std::atomic", ptr }
%"struct.std::atomic" = type { %"struct.std::__atomic_base" }
%"struct.std::__atomic_base" = type { ptr }
%"class.icu_75::UObject" = type { ptr }
%"class.icu_75::UnicodeString" = type { %"class.icu_75::Replaceable", %"union.icu_75::UnicodeString::StackBufferOrFields" }
%"class.icu_75::Replaceable" = type { %"class.icu_75::UObject" }
%"union.icu_75::UnicodeString::StackBufferOrFields" = type { %struct.anon.0, [32 x i8] }
%struct.anon.0 = type { i16, i32, i32, ptr }
%"class.icu_75::ConstChar16Ptr" = type { ptr }
%"class.icu_75::Mutex" = type { ptr }
%"class.icu_75::ZNames" = type <{ [7 x ptr], i8, i8, [6 x i8] }>

@_ZN6icu_75L10gDataMutexE = internal global %"class.icu_75::UMutex" zeroinitializer, align 8

; Function Attrs: mustprogress nounwind uwtable
define linkonce_odr void @_ZN6icu_7514ConstChar16PtrD2Ev(ptr noundef nonnull align 8 dereferenceable(8) %this) unnamed_addr #0 comdat align 2 {
entry:
  %this.addr = alloca ptr, align 8
  store ptr %this, ptr %this.addr, align 8
  %this1 = load ptr, ptr %this.addr, align 8
  %p_ = getelementptr inbounds %"class.icu_75::ConstChar16Ptr", ptr %this1, i32 0, i32 0
  %0 = load ptr, ptr %p_, align 8
  call void asm sideeffect "", "rm,~{memory},~{dirflag},~{fpsr},~{flags}"(ptr %0) #10, !srcloc !11
  ret void
}

; Function Attrs: mustprogress nounwind uwtable
define linkonce_odr void @_ZN6icu_7514ConstChar16PtrC2EPKDs(ptr noundef nonnull align 8 dereferenceable(8) %this, ptr noundef %p) unnamed_addr #0 comdat align 2 {
entry:
  %this.addr = alloca ptr, align 8
  %p.addr = alloca ptr, align 8
  store ptr %this, ptr %this.addr, align 8
  store ptr %p, ptr %p.addr, align 8
  %this1 = load ptr, ptr %this.addr, align 8
  %p_ = getelementptr inbounds %"class.icu_75::ConstChar16Ptr", ptr %this1, i32 0, i32 0
  %0 = load ptr, ptr %p.addr, align 8
  store ptr %0, ptr %p_, align 8
  ret void
}

; Function Attrs: mustprogress uwtable
define linkonce_odr noundef ptr @_ZNK6icu_756ZNames7getNameE17UTimeZoneNameType(ptr noundef nonnull align 8 dereferenceable(58) %this, i32 noundef %type) #1 comdat align 2 {
entry:
  %this.addr = alloca ptr, align 8
  %type.addr = alloca i32, align 4
  %index = alloca i32, align 4
  store ptr %this, ptr %this.addr, align 8
  store i32 %type, ptr %type.addr, align 4
  %this1 = load ptr, ptr %this.addr, align 8
  %0 = load i32, ptr %type.addr, align 4
  %call = call noundef i32 @_ZN6icu_756ZNames18getTZNameTypeIndexE17UTimeZoneNameType(i32 noundef %0)
  store i32 %call, ptr %index, align 4
  %1 = load i32, ptr %index, align 4
  %cmp = icmp sge i32 %1, 0
  br i1 %cmp, label %cond.true, label %cond.false

cond.true:                                        ; preds = %entry
  %fNames = getelementptr inbounds %"class.icu_75::ZNames", ptr %this1, i32 0, i32 0
  %2 = load i32, ptr %index, align 4
  %idxprom = sext i32 %2 to i64
  %arrayidx = getelementptr inbounds [7 x ptr], ptr %fNames, i64 0, i64 %idxprom
  %3 = load ptr, ptr %arrayidx, align 8
  br label %cond.end

cond.false:                                       ; preds = %entry
  br label %cond.end

cond.end:                                         ; preds = %cond.false, %cond.true
  %cond = phi ptr [ %3, %cond.true ], [ null, %cond.false ]
  ret ptr %cond
}

; Function Attrs: mustprogress nounwind uwtable
define linkonce_odr void @_ZN6icu_755MutexD2Ev(ptr noundef nonnull align 8 dereferenceable(8) %this) unnamed_addr #0 comdat align 2 personality ptr @__gxx_personality_v0 {
entry:
  %this.addr = alloca ptr, align 8
  store ptr %this, ptr %this.addr, align 8
  %this1 = load ptr, ptr %this.addr, align 8
  %fMutex = getelementptr inbounds %"class.icu_75::Mutex", ptr %this1, i32 0, i32 0
  %0 = load ptr, ptr %fMutex, align 8
  invoke void @umtx_unlock_75(ptr noundef %0)
          to label %invoke.cont unwind label %terminate.lpad

invoke.cont:                                      ; preds = %entry
  ret void

terminate.lpad:                                   ; preds = %entry
  %1 = landingpad { ptr, i32 }
          catch ptr null
  %2 = extractvalue { ptr, i32 } %1, 0
  call void @__clang_call_terminate(ptr %2) #12
  unreachable
}

; Function Attrs: mustprogress nounwind uwtable
define internal noundef signext i8 @_ZL9U_FAILURE10UErrorCode(i32 noundef %code) #0 {
entry:
  %code.addr = alloca i32, align 4
  store i32 %code, ptr %code.addr, align 4
  %0 = load i32, ptr %code.addr, align 4
  %cmp = icmp sgt i32 %0, 0
  %conv = zext i1 %cmp to i8
  ret i8 %conv
}

; Function Attrs: mustprogress uwtable
define linkonce_odr void @_ZN6icu_755MutexC2EPNS_6UMutexE(ptr noundef nonnull align 8 dereferenceable(8) %this, ptr noundef %mutex) unnamed_addr #1 comdat align 2 {
entry:
  %this.addr = alloca ptr, align 8
  %mutex.addr = alloca ptr, align 8
  store ptr %this, ptr %this.addr, align 8
  store ptr %mutex, ptr %mutex.addr, align 8
  %this1 = load ptr, ptr %this.addr, align 8
  %fMutex = getelementptr inbounds %"class.icu_75::Mutex", ptr %this1, i32 0, i32 0
  %0 = load ptr, ptr %mutex.addr, align 8
  store ptr %0, ptr %fMutex, align 8
  %fMutex2 = getelementptr inbounds %"class.icu_75::Mutex", ptr %this1, i32 0, i32 0
  %1 = load ptr, ptr %fMutex2, align 8
  call void @umtx_lock_75(ptr noundef %1)
  ret void
}

; Function Attrs: mustprogress nounwind uwtable
define linkonce_odr noundef signext i8 @_ZNK6icu_7513UnicodeString7isEmptyEv(ptr noundef nonnull align 8 dereferenceable(64) %this) #0 comdat align 2 {
entry:
  %this.addr = alloca ptr, align 8
  store ptr %this, ptr %this.addr, align 8
  %this1 = load ptr, ptr %this.addr, align 8
  %fUnion = getelementptr inbounds %"class.icu_75::UnicodeString", ptr %this1, i32 0, i32 1
  %fLengthAndFlags = getelementptr inbounds %struct.anon.0, ptr %fUnion, i32 0, i32 0
  %0 = load i16, ptr %fLengthAndFlags, align 8
  %conv = sext i16 %0 to i32
  %shr = ashr i32 %conv, 5
  %cmp = icmp eq i32 %shr, 0
  %conv2 = zext i1 %cmp to i8
  ret i8 %conv2
}

; Function Attrs: mustprogress uwtable
define noundef nonnull align 8 dereferenceable(64) ptr @_ZNK6icu_7517TimeZoneNamesImpl22getMetaZoneDisplayNameERKNS_13UnicodeStringE17UTimeZoneNameTypeRS1_(ptr noundef nonnull align 8 dereferenceable(320) %this, ptr noundef nonnull align 8 dereferenceable(64) %mzID, i32 noundef %type, ptr noundef nonnull align 8 dereferenceable(64) %name) unnamed_addr #1 align 2 personality ptr @__gxx_personality_v0 {
entry:
  %retval = alloca ptr, align 8
  %this.addr = alloca ptr, align 8
  %mzID.addr = alloca ptr, align 8
  %type.addr = alloca i32, align 4
  %name.addr = alloca ptr, align 8
  %znames = alloca ptr, align 8
  %nonConstThis = alloca ptr, align 8
  %lock = alloca %"class.icu_75::Mutex", align 8
  %status = alloca i32, align 4
  %exn.slot = alloca ptr, align 8
  %ehselector.slot = alloca i32, align 4
  %cleanup.dest.slot = alloca i32, align 4
  %s = alloca ptr, align 8
  %agg.tmp = alloca %"class.icu_75::ConstChar16Ptr", align 8
  store ptr %this, ptr %this.addr, align 8
  store ptr %mzID, ptr %mzID.addr, align 8
  store i32 %type, ptr %type.addr, align 4
  store ptr %name, ptr %name.addr, align 8
  %this1 = load ptr, ptr %this.addr, align 8
  %0 = load ptr, ptr %name.addr, align 8
  call void @_ZN6icu_7513UnicodeString10setToBogusEv(ptr noundef nonnull align 8 dereferenceable(64) %0)
  %1 = load ptr, ptr %mzID.addr, align 8
  %call = call noundef signext i8 @_ZNK6icu_7513UnicodeString7isEmptyEv(ptr noundef nonnull align 8 dereferenceable(64) %1)
  %tobool = icmp ne i8 %call, 0
  br i1 %tobool, label %if.then, label %if.end

if.then:                                          ; preds = %entry
  %2 = load ptr, ptr %name.addr, align 8
  store ptr %2, ptr %retval, align 8
  br label %return

if.end:                                           ; preds = %entry
  store ptr null, ptr %znames, align 8
  store ptr %this1, ptr %nonConstThis, align 8
  call void @_ZN6icu_755MutexC2EPNS_6UMutexE(ptr noundef nonnull align 8 dereferenceable(8) %lock, ptr noundef @_ZN6icu_75L10gDataMutexE)
  store i32 0, ptr %status, align 4
  %3 = load ptr, ptr %nonConstThis, align 8
  %4 = load ptr, ptr %mzID.addr, align 8
  %call2 = invoke noundef ptr @_ZN6icu_7517TimeZoneNamesImpl17loadMetaZoneNamesERKNS_13UnicodeStringER10UErrorCode(ptr noundef nonnull align 8 dereferenceable(320) %3, ptr noundef nonnull align 8 dereferenceable(64) %4, ptr noundef nonnull align 4 dereferenceable(4) %status)
          to label %invoke.cont unwind label %lpad

invoke.cont:                                      ; preds = %if.end
  store ptr %call2, ptr %znames, align 8
  %5 = load i32, ptr %status, align 4
  %call4 = invoke noundef signext i8 @_ZL9U_FAILURE10UErrorCode(i32 noundef %5)
          to label %invoke.cont3 unwind label %lpad

invoke.cont3:                                     ; preds = %invoke.cont
  %tobool5 = icmp ne i8 %call4, 0
  br i1 %tobool5, label %if.then6, label %if.end7

if.then6:                                         ; preds = %invoke.cont3
  %6 = load ptr, ptr %name.addr, align 8
  store ptr %6, ptr %retval, align 8
  store i32 1, ptr %cleanup.dest.slot, align 4
  br label %cleanup

lpad:                                             ; preds = %invoke.cont, %if.end
  %7 = landingpad { ptr, i32 }
          cleanup
  %8 = extractvalue { ptr, i32 } %7, 0
  store ptr %8, ptr %exn.slot, align 8
  %9 = extractvalue { ptr, i32 } %7, 1
  store i32 %9, ptr %ehselector.slot, align 4
  call void @_ZN6icu_755MutexD2Ev(ptr noundef nonnull align 8 dereferenceable(8) %lock) #10
  br label %eh.resume

if.end7:                                          ; preds = %invoke.cont3
  store i32 0, ptr %cleanup.dest.slot, align 4
  br label %cleanup

cleanup:                                          ; preds = %if.end7, %if.then6
  call void @_ZN6icu_755MutexD2Ev(ptr noundef nonnull align 8 dereferenceable(8) %lock) #10
  %cleanup.dest = load i32, ptr %cleanup.dest.slot, align 4
  switch i32 %cleanup.dest, label %unreachable [
    i32 0, label %cleanup.cont
    i32 1, label %return
  ]

cleanup.cont:                                     ; preds = %cleanup
  %10 = load ptr, ptr %znames, align 8
  %cmp = icmp ne ptr %10, null
  br i1 %cmp, label %if.then8, label %if.end16

if.then8:                                         ; preds = %cleanup.cont
  %11 = load ptr, ptr %znames, align 8
  %12 = load i32, ptr %type.addr, align 4
  %call9 = call noundef ptr @_ZNK6icu_756ZNames7getNameE17UTimeZoneNameType(ptr noundef nonnull align 8 dereferenceable(58) %11, i32 noundef %12)
  store ptr %call9, ptr %s, align 8
  %13 = load ptr, ptr %s, align 8
  %cmp10 = icmp ne ptr %13, null
  br i1 %cmp10, label %if.then11, label %if.end15

if.then11:                                        ; preds = %if.then8
  %14 = load ptr, ptr %name.addr, align 8
  %15 = load ptr, ptr %s, align 8
  call void @_ZN6icu_7514ConstChar16PtrC2EPKDs(ptr noundef nonnull align 8 dereferenceable(8) %agg.tmp, ptr noundef %15)
  %call14 = invoke noundef nonnull align 8 dereferenceable(64) ptr @_ZN6icu_7513UnicodeString5setToEaNS_14ConstChar16PtrEi(ptr noundef nonnull align 8 dereferenceable(64) %14, i8 noundef signext 1, ptr noundef %agg.tmp, i32 noundef -1)
          to label %invoke.cont13 unwind label %lpad12

invoke.cont13:                                    ; preds = %if.then11
  call void @_ZN6icu_7514ConstChar16PtrD2Ev(ptr noundef nonnull align 8 dereferenceable(8) %agg.tmp) #10
  br label %if.end15

lpad12:                                           ; preds = %if.then11
  %16 = landingpad { ptr, i32 }
          cleanup
  %17 = extractvalue { ptr, i32 } %16, 0
  store ptr %17, ptr %exn.slot, align 8
  %18 = extractvalue { ptr, i32 } %16, 1
  store i32 %18, ptr %ehselector.slot, align 4
  call void @_ZN6icu_7514ConstChar16PtrD2Ev(ptr noundef nonnull align 8 dereferenceable(8) %agg.tmp) #10
  br label %eh.resume

if.end15:                                         ; preds = %invoke.cont13, %if.then8
  br label %if.end16

if.end16:                                         ; preds = %if.end15, %cleanup.cont
  %19 = load ptr, ptr %name.addr, align 8
  store ptr %19, ptr %retval, align 8
  br label %return

return:                                           ; preds = %if.end16, %cleanup, %if.then
  %20 = load ptr, ptr %retval, align 8
  ret ptr %20

eh.resume:                                        ; preds = %lpad12, %lpad
  %exn = load ptr, ptr %exn.slot, align 8
  %sel = load i32, ptr %ehselector.slot, align 4
  %lpad.val = insertvalue { ptr, i32 } poison, ptr %exn, 0
  %lpad.val17 = insertvalue { ptr, i32 } %lpad.val, i32 %sel, 1
  resume { ptr, i32 } %lpad.val17

unreachable:                                      ; preds = %cleanup
  unreachable
}