; Function Attrs: mustprogress uwtable
define noundef nonnull align 8 dereferenceable(64) ptr @_ZNK6icu_7517TimeZoneNamesImpl22getMetaZoneDisplayNameERKNS_13UnicodeStringE17UTimeZoneNameTypeRS1_(ptr nocapture noundef nonnull readonly align 8 dereferenceable(320) %this, ptr noundef nonnull align 8 dereferenceable(64) %mzID, i32 noundef %type, ptr noundef nonnull returned align 8 dereferenceable(64) %name) unnamed_addr #1 align 2 personality ptr @__gxx_personality_v0 {
entry:
  %status = alloca i32, align 4
  %agg.tmp = alloca %"class.icu_75::ConstChar16Ptr", align 8
  tail call void @_ZN6icu_7513UnicodeString10setToBogusEv(ptr noundef nonnull align 8 dereferenceable(64) %name)
  %fUnion.i = getelementptr inbounds i8, ptr %mzID, i64 8
  %0 = load i16, ptr %fUnion.i, align 8
  %cmp.i = icmp ugt i16 %0, 31
  br i1 %cmp.i, label %if.end, label %return

if.end:                                           ; preds = %entry
  tail call void @umtx_lock_75(ptr noundef nonnull @_ZN6icu_75L10gDataMutexE)
  store i32 0, ptr %status, align 4
  %call2 = invoke noundef ptr @_ZN6icu_7517TimeZoneNamesImpl17loadMetaZoneNamesERKNS_13UnicodeStringER10UErrorCode(ptr noundef nonnull align 8 dereferenceable(320) %this, ptr noundef nonnull align 8 dereferenceable(64) %mzID, ptr noundef nonnull align 4 dereferenceable(4) %status)
          to label %invoke.cont unwind label %lpad

invoke.cont:                                      ; preds = %if.end
  %1 = load i32, ptr %status, align 4
  invoke void @umtx_unlock_75(ptr noundef nonnull @_ZN6icu_75L10gDataMutexE)
          to label %_ZN6icu_755MutexD2Ev.exit unwind label %terminate.lpad.i

terminate.lpad.i:                                 ; preds = %invoke.cont
  %2 = landingpad { ptr, i32 }
          catch ptr null
  %3 = extractvalue { ptr, i32 } %2, 0
  call void @__clang_call_terminate(ptr %3) #22
  unreachable

_ZN6icu_755MutexD2Ev.exit:                        ; preds = %invoke.cont
  %cmp.i9 = icmp sgt i32 %1, 0
  %cmp.not = icmp eq ptr %call2, null
  %or.cond = or i1 %cmp.not, %cmp.i9
  br i1 %or.cond, label %return, label %if.then8

lpad:                                             ; preds = %if.end
  %4 = landingpad { ptr, i32 }
          cleanup
  invoke void @umtx_unlock_75(ptr noundef nonnull @_ZN6icu_75L10gDataMutexE)
          to label %eh.resume unwind label %terminate.lpad.i10

terminate.lpad.i10:                               ; preds = %lpad
  %5 = landingpad { ptr, i32 }
          catch ptr null
  %6 = extractvalue { ptr, i32 } %5, 0
  call void @__clang_call_terminate(ptr %6) #22
  unreachable

if.then8:                                         ; preds = %_ZN6icu_755MutexD2Ev.exit
  %call.i = call noundef i32 @_ZN6icu_756ZNames18getTZNameTypeIndexE17UTimeZoneNameType(i32 noundef %type)
  %cmp.i12 = icmp sgt i32 %call.i, -1
  br i1 %cmp.i12, label %_ZNK6icu_756ZNames7getNameE17UTimeZoneNameType.exit, label %return

_ZNK6icu_756ZNames7getNameE17UTimeZoneNameType.exit: ; preds = %if.then8
  %idxprom.i = zext nneg i32 %call.i to i64
  %arrayidx.i = getelementptr inbounds [7 x ptr], ptr %call2, i64 0, i64 %idxprom.i
  %7 = load ptr, ptr %arrayidx.i, align 8
  %cmp10.not = icmp eq ptr %7, null
  br i1 %cmp10.not, label %return, label %if.then11

if.then11:                                        ; preds = %_ZNK6icu_756ZNames7getNameE17UTimeZoneNameType.exit
  store ptr %7, ptr %agg.tmp, align 8
  %call14 = invoke noundef nonnull align 8 dereferenceable(64) ptr @_ZN6icu_7513UnicodeString5setToEaNS_14ConstChar16PtrEi(ptr noundef nonnull align 8 dereferenceable(64) %name, i8 noundef signext 1, ptr noundef nonnull %agg.tmp, i32 noundef -1)
          to label %invoke.cont13 unwind label %lpad12

invoke.cont13:                                    ; preds = %if.then11
  %8 = load ptr, ptr %agg.tmp, align 8
  call void asm sideeffect "", "rm,~{memory},~{dirflag},~{fpsr},~{flags}"(ptr %8) #20, !srcloc !11
  br label %return

lpad12:                                           ; preds = %if.then11
  %9 = landingpad { ptr, i32 }
          cleanup
  %10 = load ptr, ptr %agg.tmp, align 8
  call void asm sideeffect "", "rm,~{memory},~{dirflag},~{fpsr},~{flags}"(ptr %10) #20, !srcloc !11
  br label %eh.resume

return:                                           ; preds = %if.then8, %_ZN6icu_755MutexD2Ev.exit, %invoke.cont13, %_ZNK6icu_756ZNames7getNameE17UTimeZoneNameType.exit, %entry
  ret ptr %name

eh.resume:                                        ; preds = %lpad, %lpad12
  %.pn = phi { ptr, i32 } [ %9, %lpad12 ], [ %4, %lpad ]
  resume { ptr, i32 } %.pn
}